target datalayout = "e-m:e-p270:32:32-p271:32:32-p272:64:64-i64:64-i128:128-f80:128-n8:16:32:64-S128"
target triple = "x86_64-pc-linux-gnu"

%struct.settings = type { i64, i32, i32, i32, ptr, i32, i32, i32, ptr, ptr, i32, double, i32, i32, i32, i8, i32, i32, i8, i32, i32, i32, i32, i32, i32, i8, i8, i8, i8, i8, i8, i8, i32, i32, double, double, i32, i32, i8, i32, i8, i8, ptr, i32, i32, i32, i32, double, double, i32, i8, i32, i32, i32, i32, i32, i8, i8, i8, ptr, i32, i32, i32, i32, i32, i32, i32, i32, i32, i32, double, i8, i32, i32, ptr, i32 }
%struct.extstore_conf_file = type { i32, ptr, i32, i64, i32, i32, ptr }
%struct.storage_settings = type { ptr, %struct.extstore_conf }
%struct.extstore_conf = type { i32, i32, i32, i32, i32, i32, i32, i32 }

@settings = external global %struct.settings, align 8
@stderr = external global ptr, align 8
@.str.92 = private unnamed_addr constant [43 x i8] c"Failed to initialize external storage: %s\0A\00", align 1
@.str.93 = private unnamed_addr constant [14 x i8] c"extstore open\00", align 1

; Function Attrs: nounwind uwtable
define dso_local ptr @storage_init(ptr noundef %0) #0 {
  %2 = alloca ptr, align 8
  %3 = alloca ptr, align 8
  %4 = alloca ptr, align 8
  %5 = alloca ptr, align 8
  %6 = alloca i32, align 4
  %7 = alloca ptr, align 8
  %8 = alloca i32, align 4
  store ptr %0, ptr %3, align 8, !tbaa !4
  call void @llvm.lifetime.start.p0(i64 8, ptr %4) #13
  %9 = load ptr, ptr %3, align 8, !tbaa !4
  store ptr %9, ptr %4, align 8, !tbaa !199
  call void @llvm.lifetime.start.p0(i64 8, ptr %5) #13
  %10 = load ptr, ptr %4, align 8, !tbaa !199
  %11 = getelementptr inbounds nuw %struct.storage_settings, ptr %10, i32 0, i32 1
  store ptr %11, ptr %5, align 8, !tbaa !220
  call void @llvm.lifetime.start.p0(i64 4, ptr %6) #13
  call void @llvm.lifetime.start.p0(i64 8, ptr %7) #13
  store ptr null, ptr %7, align 8, !tbaa !4
  %12 = load i32, ptr getelementptr inbounds nuw (%struct.settings, ptr @settings, i32 0, i32 67), align 4, !tbaa !205
  %13 = icmp eq i32 %12, 0
  br i1 %13, label %14, label %39

14:                                               ; preds = %1
  %15 = load ptr, ptr %4, align 8, !tbaa !199
  %16 = getelementptr inbounds nuw %struct.storage_settings, ptr %15, i32 0, i32 0
  %17 = load ptr, ptr %16, align 8, !tbaa !222
  %18 = getelementptr inbounds nuw %struct.extstore_conf_file, ptr %17, i32 0, i32 0
  %19 = load i32, ptr %18, align 8, !tbaa !195
  %20 = uitofp i32 %19 to double
  %21 = fmul double %20, 1.000000e-02
  %22 = fptoui double %21 to i32
  store i32 %22, ptr getelementptr inbounds nuw (%struct.settings, ptr @settings, i32 0, i32 67), align 4, !tbaa !205
  %23 = load ptr, ptr %4, align 8, !tbaa !199
  %24 = getelementptr inbounds nuw %struct.storage_settings, ptr %23, i32 0, i32 0
  %25 = load ptr, ptr %24, align 8, !tbaa !222
  %26 = getelementptr inbounds nuw %struct.extstore_conf_file, ptr %25, i32 0, i32 0
  %27 = load i32, ptr %26, align 8, !tbaa !195
  %28 = uitofp i32 %27 to double
  %29 = fmul double %28, 1.000000e-02
  %30 = fptoui double %29 to i32
  store i32 %30, ptr getelementptr inbounds nuw (%struct.settings, ptr @settings, i32 0, i32 68), align 8, !tbaa !206
  %31 = load i32, ptr getelementptr inbounds nuw (%struct.settings, ptr @settings, i32 0, i32 67), align 4, !tbaa !205
  %32 = icmp ult i32 %31, 1
  br i1 %32, label %33, label %34

33:                                               ; preds = %14
  store i32 1, ptr getelementptr inbounds nuw (%struct.settings, ptr @settings, i32 0, i32 67), align 4, !tbaa !205
  br label %34

34:                                               ; preds = %33, %14
  %35 = load i32, ptr getelementptr inbounds nuw (%struct.settings, ptr @settings, i32 0, i32 68), align 8, !tbaa !206
  %36 = icmp ult i32 %35, 1
  br i1 %36, label %37, label %38

37:                                               ; preds = %34
  store i32 1, ptr getelementptr inbounds nuw (%struct.settings, ptr @settings, i32 0, i32 68), align 8, !tbaa !206
  br label %38

38:                                               ; preds = %37, %34
  br label %39

39:                                               ; preds = %38, %1
  call void @crc32c_init()
  store i32 0, ptr getelementptr inbounds nuw (%struct.settings, ptr @settings, i32 0, i32 72), align 4, !tbaa !164
  %40 = load ptr, ptr %4, align 8, !tbaa !199
  %41 = getelementptr inbounds nuw %struct.storage_settings, ptr %40, i32 0, i32 0
  %42 = load ptr, ptr %41, align 8, !tbaa !222
  %43 = load ptr, ptr %5, align 8, !tbaa !220
  %44 = call ptr @extstore_init(ptr noundef %42, ptr noundef %43, ptr noundef %6)
  store ptr %44, ptr %7, align 8, !tbaa !4
  %45 = load ptr, ptr %7, align 8, !tbaa !4
  %46 = icmp eq ptr %45, null
  br i1 %46, label %47, label %56

47:                                               ; preds = %39
  %48 = load ptr, ptr @stderr, align 8, !tbaa !159
  %49 = load i32, ptr %6, align 4, !tbaa !17
  %50 = call ptr @extstore_err(i32 noundef %49)
  %51 = call i32 (ptr, ptr, ...) @fprintf(ptr noundef %48, ptr noundef @.str.92, ptr noundef %50) #13
  %52 = load i32, ptr %6, align 4, !tbaa !17
  %53 = icmp eq i32 %52, 7
  br i1 %53, label %54, label %55

54:                                               ; preds = %47
  call void @perror(ptr noundef @.str.93)
  br label %55

55:                                               ; preds = %54, %47
  store ptr null, ptr %2, align 8
  store i32 1, ptr %8, align 4
  br label %58

56:                                               ; preds = %39
  %57 = load ptr, ptr %7, align 8, !tbaa !4
  store ptr %57, ptr %2, align 8
  store i32 1, ptr %8, align 4
  br label %58

58:                                               ; preds = %56, %55
  call void @llvm.lifetime.end.p0(i64 8, ptr %7) #13
  call void @llvm.lifetime.end.p0(i64 4, ptr %6) #13
  call void @llvm.lifetime.end.p0(i64 8, ptr %5) #13
  call void @llvm.lifetime.end.p0(i64 8, ptr %4) #13
  %59 = load ptr, ptr %2, align 8
  ret ptr %59
}