; Function Attrs: nounwind uwtable
define dso_local ptr @storage_init(ptr noundef %0) local_unnamed_addr #0 {
  %2 = alloca i32, align 4
  %3 = getelementptr inbounds nuw i8, ptr %0, i64 8
  call void @llvm.lifetime.start.p0(i64 4, ptr nonnull %2) #21
  %4 = load i32, ptr getelementptr inbounds nuw (i8, ptr @settings, i64 300), align 4, !tbaa !217
  %5 = icmp eq i32 %4, 0
  br i1 %5, label %6, label %14

6:                                                ; preds = %1
  %7 = load ptr, ptr %0, align 8, !tbaa !230
  %8 = load i32, ptr %7, align 8, !tbaa !213
  %9 = uitofp i32 %8 to double
  %10 = fmul double %9, 1.000000e-02
  %11 = fptoui double %10 to i32
  store i32 %11, ptr getelementptr inbounds nuw (i8, ptr @settings, i64 300), align 4, !tbaa !217
  store i32 %11, ptr getelementptr inbounds nuw (i8, ptr @settings, i64 304), align 8, !tbaa !218
  %12 = icmp eq i32 %11, 0
  br i1 %12, label %13, label %14

13:                                               ; preds = %6
  store i32 1, ptr getelementptr inbounds nuw (i8, ptr @settings, i64 300), align 4, !tbaa !217
  store i32 1, ptr getelementptr inbounds nuw (i8, ptr @settings, i64 304), align 8, !tbaa !218
  br label %14

14:                                               ; preds = %6, %13, %1
  tail call void @crc32c_init() #21
  store i32 0, ptr getelementptr inbounds nuw (i8, ptr @settings, i64 324), align 4, !tbaa !161
  %15 = load ptr, ptr %0, align 8, !tbaa !230
  %16 = call ptr @extstore_init(ptr noundef %15, ptr noundef nonnull %3, ptr noundef nonnull %2) #21
  %17 = icmp eq ptr %16, null
  br i1 %17, label %18, label %26

18:                                               ; preds = %14
  %19 = load ptr, ptr @stderr, align 8, !tbaa !156
  %20 = load i32, ptr %2, align 4, !tbaa !13
  %21 = call ptr @extstore_err(i32 noundef %20) #21
  %22 = call i32 (ptr, ptr, ...) @fprintf(ptr noundef %19, ptr noundef nonnull @.str.92, ptr noundef %21) #24
  %23 = load i32, ptr %2, align 4, !tbaa !13
  %24 = icmp eq i32 %23, 7
  br i1 %24, label %25, label %26

25:                                               ; preds = %18
  call void @perror(ptr noundef nonnull @.str.93) #25
  br label %26

26:                                               ; preds = %14, %18, %25
  call void @llvm.lifetime.end.p0(i64 4, ptr nonnull %2) #21
  ret ptr %16
}